target datalayout = "e-m:e-p270:32:32-p271:32:32-p272:64:64-i64:64-i128:128-f80:128-n8:16:32:64-S128"
target triple = "x86_64-pc-linux-gnu"

%struct.strbuf = type { i64, i64, ptr }
%struct.stash_info = type { %struct.object_id, %struct.object_id, %struct.object_id, %struct.object_id, %struct.object_id, %struct.object_id, %struct.object_id, %struct.object_id, %struct.strbuf, i32, i32 }
%struct.object_id = type { [32 x i8], i32 }
%struct.pathspec = type { i32, i8, i32, i32, ptr }

@__const.create_stash.stash_msg_buf = private unnamed_addr constant %struct.strbuf { i64 0, i64 0, ptr @strbuf_slopbuf }, align 8
@.str.93 = private unnamed_addr constant [3 x i8] c"%s\00", align 1

; Function Attrs: nounwind uwtable
define internal void @free_stash_info(ptr noundef %0) #0 {
  %2 = alloca ptr, align 8
  store ptr %0, ptr %2, align 8, !tbaa !109
  %3 = load ptr, ptr %2, align 8, !tbaa !109
  %4 = getelementptr inbounds nuw %struct.stash_info, ptr %3, i32 0, i32 8
  call void @strbuf_release(ptr noundef %4)
  ret void
}

; Function Attrs: nounwind uwtable
define internal i32 @create_stash(i32 noundef %0, ptr noundef %1, ptr noundef %2, ptr noundef %3) #0 {
  %5 = alloca i32, align 4
  %6 = alloca i32, align 4
  %7 = alloca ptr, align 8
  %8 = alloca ptr, align 8
  %9 = alloca ptr, align 8
  %10 = alloca i32, align 4
  %11 = alloca %struct.strbuf, align 8
  %12 = alloca %struct.stash_info, align 8
  %13 = alloca %struct.pathspec, align 8
  %14 = alloca i32, align 4
  store i32 %0, ptr %6, align 4, !tbaa !4
  store ptr %1, ptr %7, align 8, !tbaa !8
  store ptr %2, ptr %8, align 8, !tbaa !11
  store ptr %3, ptr %9, align 8, !tbaa !13
  call void @llvm.lifetime.start.p0(i64 4, ptr %10) #9
  call void @llvm.lifetime.start.p0(i64 24, ptr %11) #9
  call void @llvm.memcpy.p0.p0.i64(ptr align 8 %11, ptr align 8 @__const.create_stash.stash_msg_buf, i64 24, i1 false)
  call void @llvm.lifetime.start.p0(i64 320, ptr %12) #9
  call void @llvm.memcpy.p0.p0.i64(ptr align 8 %12, ptr align 8 @__const.create_stash.info, i64 320, i1 false)
  call void @llvm.lifetime.start.p0(i64 24, ptr %13) #9
  %15 = load i32, ptr %6, align 4, !tbaa !4
  %16 = sub nsw i32 %15, 1
  %17 = load ptr, ptr %7, align 8, !tbaa !8
  %18 = getelementptr inbounds nuw ptr, ptr %17, i32 1
  store ptr %18, ptr %7, align 8, !tbaa !8
  %19 = call ptr @strbuf_join_argv(ptr noundef %11, i32 noundef %16, ptr noundef %18, i8 noundef signext 32)
  call void @llvm.memset.p0.i64(ptr align 8 %13, i8 0, i64 24, i1 false)
  %20 = call i32 @check_changes_tracked_files(ptr noundef %13)
  %21 = icmp ne i32 %20, 0
  br i1 %21, label %23, label %22

22:                                               ; preds = %4
  store i32 0, ptr %5, align 4
  store i32 1, ptr %14, align 4
  br label %33

23:                                               ; preds = %4
  %24 = call i32 @do_create_stash(ptr noundef %13, ptr noundef %11, i32 noundef 0, i32 noundef 0, i32 noundef 0, ptr noundef %12, ptr noundef null, i32 noundef 0)
  store i32 %24, ptr %10, align 4, !tbaa !4
  %25 = load i32, ptr %10, align 4, !tbaa !4
  %26 = icmp ne i32 %25, 0
  br i1 %26, label %31, label %27

27:                                               ; preds = %23
  %28 = getelementptr inbounds nuw %struct.stash_info, ptr %12, i32 0, i32 0
  %29 = call ptr @oid_to_hex(ptr noundef %28)
  %30 = call i32 (ptr, ...) @printf_ln(ptr noundef @.str.93, ptr noundef %29)
  br label %31

31:                                               ; preds = %27, %23
  call void @free_stash_info(ptr noundef %12)
  call void @strbuf_release(ptr noundef %11)
  %32 = load i32, ptr %10, align 4, !tbaa !4
  store i32 %32, ptr %5, align 4
  store i32 1, ptr %14, align 4
  br label %33

33:                                               ; preds = %31, %22
  call void @llvm.lifetime.end.p0(i64 24, ptr %13) #9
  call void @llvm.lifetime.end.p0(i64 320, ptr %12) #9
  call void @llvm.lifetime.end.p0(i64 24, ptr %11) #9
  call void @llvm.lifetime.end.p0(i64 4, ptr %10) #9
  %34 = load i32, ptr %5, align 4
  ret i32 %34
}