; Function Attrs: nounwind uwtable
define internal range(i32 -1, 2) i32 @create_stash(i32 noundef %0, ptr noundef %1, ptr readnone captures(none) %2, ptr readnone captures(none) %3) #0 {
  %5 = alloca %struct.strbuf, align 8
  %6 = alloca %struct.stash_info, align 8
  %7 = alloca %struct.pathspec, align 8
  call void @llvm.lifetime.start.p0(i64 24, ptr nonnull %5) #15
  call void @llvm.memcpy.p0.p0.i64(ptr noundef nonnull align 8 dereferenceable(24) %5, ptr noundef nonnull align 8 dereferenceable(24) @__const.do_push_stash.out, i64 24, i1 false)
  call void @llvm.lifetime.start.p0(i64 320, ptr nonnull %6) #15
  call void @llvm.memcpy.p0.p0.i64(ptr noundef nonnull align 8 dereferenceable(320) %6, ptr noundef nonnull align 8 dereferenceable(320) @__const.do_push_stash.info, i64 320, i1 false)
  call void @llvm.lifetime.start.p0(i64 24, ptr nonnull %7) #15
  %8 = add nsw i32 %0, -1
  %9 = getelementptr inbounds nuw i8, ptr %1, i64 8
  %10 = call ptr @strbuf_join_argv(ptr noundef nonnull %5, i32 noundef %8, ptr noundef nonnull %9, i8 noundef signext 32) #15
  call void @llvm.memset.p0.i64(ptr noundef nonnull align 8 dereferenceable(24) %7, i8 0, i64 24, i1 false)
  %11 = call fastcc i32 @check_changes_tracked_files(ptr noundef %7)
  %.not = icmp eq i32 %11, 0
  br i1 %.not, label %19, label %12

12:                                               ; preds = %4
  %13 = call fastcc i32 @do_create_stash(ptr noundef %7, ptr noundef %5, i32 noundef 0, i32 noundef 0, i32 noundef 0, ptr noundef %6, ptr noundef null, i32 noundef 0)
  %.not4 = icmp eq i32 %13, 0
  br i1 %.not4, label %14, label %17

14:                                               ; preds = %12
  %15 = call ptr @oid_to_hex(ptr noundef nonnull %6) #15
  %16 = call i32 (ptr, ...) @printf_ln(ptr noundef nonnull @.str.93, ptr noundef %15) #15
  br label %17

17:                                               ; preds = %14, %12
  %18 = getelementptr inbounds nuw i8, ptr %6, i64 288
  call void @strbuf_release(ptr noundef nonnull %18) #15
  call void @strbuf_release(ptr noundef nonnull %5) #15
  br label %19

19:                                               ; preds = %4, %17
  %.0 = phi i32 [ %13, %17 ], [ 0, %4 ]
  call void @llvm.lifetime.end.p0(i64 24, ptr nonnull %7) #15
  call void @llvm.lifetime.end.p0(i64 320, ptr nonnull %6) #15
  call void @llvm.lifetime.end.p0(i64 24, ptr nonnull %5) #15
  ret i32 %.0
}